target datalayout = "e-m:e-p270:32:32-p271:32:32-p272:64:64-i64:64-i128:128-f80:128-n8:16:32:64-S128"
target triple = "x86_64-pc-linux-gnu"

%struct.JSValue = type { %union.JSValueUnion, i64 }
%union.JSValueUnion = type { double }

; Function Attrs: nounwind uwtable
define internal i64 @js_get_errno(i64 noundef %0) #0 {
  %2 = alloca i64, align 8
  store i64 %0, ptr %2, align 8
  %3 = load i64, ptr %2, align 8
  %4 = icmp eq i64 %3, -1
  br i1 %4, label %5, label %10

5:                                                ; preds = %1
  %6 = call ptr @__errno_location() #10
  %7 = load i32, ptr %6, align 4
  %8 = sub i32 0, %7
  %9 = sext i32 %8 to i64
  store i64 %9, ptr %2, align 8
  br label %10

10:                                               ; preds = %5, %1
  %11 = load i64, ptr %2, align 8
  ret i64 %11
}

; Function Attrs: nounwind uwtable
define internal { i64, i64 } @js_os_kill(ptr noundef %0, i64 %1, i64 %2, i32 noundef %3, ptr noundef %4) #0 {
  %6 = alloca %struct.JSValue, align 8
  %7 = alloca ptr, align 8
  %8 = alloca i32, align 4
  %9 = alloca %struct.JSValue, align 8
  %10 = alloca %struct.JSValue, align 8
  %11 = alloca ptr, align 8
  %12 = alloca i32, align 4
  %13 = alloca ptr, align 8
  %14 = alloca i32, align 4
  %15 = alloca i32, align 4
  %16 = alloca i32, align 4
  %17 = getelementptr inbounds { i64, i64 }, ptr %10, i32 0, i32 0
  store i64 %1, ptr %17, align 8
  %18 = getelementptr inbounds { i64, i64 }, ptr %10, i32 0, i32 1
  store i64 %2, ptr %18, align 8
  store ptr %0, ptr %11, align 8
  store i32 %3, ptr %12, align 4
  store ptr %4, ptr %13, align 8
  %19 = load ptr, ptr %11, align 8
  %20 = load ptr, ptr %13, align 8
  %21 = getelementptr %struct.JSValue, ptr %20, i64 0
  %22 = getelementptr inbounds { i64, i64 }, ptr %21, i32 0, i32 0
  %23 = load i64, ptr %22, align 8
  %24 = getelementptr inbounds { i64, i64 }, ptr %21, i32 0, i32 1
  %25 = load i64, ptr %24, align 8
  %26 = call i32 @JS_ToInt32(ptr noundef %19, ptr noundef %14, i64 %23, i64 %25)
  %27 = icmp ne i32 %26, 0
  br i1 %27, label %28, label %31

28:                                               ; preds = %5
  %29 = getelementptr inbounds %struct.JSValue, ptr %9, i32 0, i32 0
  store i32 0, ptr %29, align 8
  %30 = getelementptr inbounds %struct.JSValue, ptr %9, i32 0, i32 1
  store i64 6, ptr %30, align 8
  br label %60

31:                                               ; preds = %5
  %32 = load ptr, ptr %11, align 8
  %33 = load ptr, ptr %13, align 8
  %34 = getelementptr %struct.JSValue, ptr %33, i64 1
  %35 = getelementptr inbounds { i64, i64 }, ptr %34, i32 0, i32 0
  %36 = load i64, ptr %35, align 8
  %37 = getelementptr inbounds { i64, i64 }, ptr %34, i32 0, i32 1
  %38 = load i64, ptr %37, align 8
  %39 = call i32 @JS_ToInt32(ptr noundef %32, ptr noundef %15, i64 %36, i64 %38)
  %40 = icmp ne i32 %39, 0
  br i1 %40, label %41, label %44

41:                                               ; preds = %31
  %42 = getelementptr inbounds %struct.JSValue, ptr %9, i32 0, i32 0
  store i32 0, ptr %42, align 8
  %43 = getelementptr inbounds %struct.JSValue, ptr %9, i32 0, i32 1
  store i64 6, ptr %43, align 8
  br label %60

44:                                               ; preds = %31
  %45 = load i32, ptr %14, align 4
  %46 = load i32, ptr %15, align 4
  %47 = call i32 @kill(i32 noundef %45, i32 noundef %46) #12
  %48 = sext i32 %47 to i64
  %49 = call i64 @js_get_errno(i64 noundef %48)
  %50 = trunc i64 %49 to i32
  store i32 %50, ptr %16, align 4
  %51 = load ptr, ptr %11, align 8
  %52 = load i32, ptr %16, align 4
  store ptr %51, ptr %7, align 8
  store i32 %52, ptr %8, align 4
  %53 = load i32, ptr %8, align 4
  store i32 %53, ptr %6, align 8
  %54 = getelementptr inbounds %struct.JSValue, ptr %6, i32 0, i32 1
  store i64 0, ptr %54, align 8
  %55 = load { i64, i64 }, ptr %6, align 8
  %56 = getelementptr inbounds { i64, i64 }, ptr %9, i32 0, i32 0
  %57 = extractvalue { i64, i64 } %55, 0
  store i64 %57, ptr %56, align 8
  %58 = getelementptr inbounds { i64, i64 }, ptr %9, i32 0, i32 1
  %59 = extractvalue { i64, i64 } %55, 1
  store i64 %59, ptr %58, align 8
  br label %60

60:                                               ; preds = %44, %41, %28
  %61 = load { i64, i64 }, ptr %9, align 8
  ret { i64, i64 } %61
}